target datalayout = "e-m:e-p270:32:32-p271:32:32-p272:64:64-i64:64-i128:128-f80:128-n8:16:32:64-S128"
target triple = "x86_64-pc-linux-gnu"

; Function Attrs: alwaysinline nounwind willreturn memory(none) uwtable
define internal signext i16 @av_clip_int16_c(i32 noundef %0) #8 {
  %2 = alloca i16, align 2
  %3 = alloca i32, align 4
  store i32 %0, ptr %3, align 4, !tbaa !11
  %4 = load i32, ptr %3, align 4, !tbaa !11
  %5 = add i32 %4, 32768
  %6 = and i32 %5, -65536
  %7 = icmp ne i32 %6, 0
  br i1 %7, label %8, label %13

8:                                                ; preds = %1
  %9 = load i32, ptr %3, align 4, !tbaa !11
  %10 = ashr i32 %9, 31
  %11 = xor i32 %10, 32767
  %12 = trunc i32 %11 to i16
  store i16 %12, ptr %2, align 2
  br label %16

13:                                               ; preds = %1
  %14 = load i32, ptr %3, align 4, !tbaa !11
  %15 = trunc i32 %14 to i16
  store i16 %15, ptr %2, align 2
  br label %16

16:                                               ; preds = %13, %8
  %17 = load i16, ptr %2, align 2
  ret i16 %17
}

; Function Attrs: nounwind uwtable
define internal void @mix6to2_clip_s16(ptr noundef %0, ptr noundef %1, ptr noundef %2, i32 noundef %3) #0 {
  %5 = alloca ptr, align 8
  %6 = alloca ptr, align 8
  %7 = alloca ptr, align 8
  %8 = alloca i32, align 4
  %9 = alloca i32, align 4
  %10 = alloca i32, align 4
  store ptr %0, ptr %5, align 8, !tbaa !120
  store ptr %1, ptr %6, align 8, !tbaa !120
  store ptr %2, ptr %7, align 8, !tbaa !86
  store i32 %3, ptr %8, align 4, !tbaa !11
  call void @llvm.lifetime.start.p0(i64 4, ptr %9) #9
  store i32 0, ptr %9, align 4, !tbaa !11
  br label %11

11:                                               ; preds = %113, %4
  %12 = load i32, ptr %9, align 4, !tbaa !11
  %13 = load i32, ptr %8, align 4, !tbaa !11
  %14 = icmp slt i32 %12, %13
  br i1 %14, label %15, label %116

15:                                               ; preds = %11
  call void @llvm.lifetime.start.p0(i64 4, ptr %10) #9
  %16 = load ptr, ptr %6, align 8, !tbaa !120
  %17 = getelementptr inbounds ptr, ptr %16, i64 2
  %18 = load ptr, ptr %17, align 8, !tbaa !84
  %19 = load i32, ptr %9, align 4, !tbaa !11
  %20 = sext i32 %19 to i64
  %21 = getelementptr inbounds i16, ptr %18, i64 %20
  %22 = load i16, ptr %21, align 2, !tbaa !87
  %23 = sext i16 %22 to i32
  %24 = load ptr, ptr %7, align 8, !tbaa !86
  %25 = getelementptr inbounds i32, ptr %24, i64 2
  %26 = load i32, ptr %25, align 4, !tbaa !11
  %27 = mul nsw i32 %23, %26
  %28 = load ptr, ptr %6, align 8, !tbaa !120
  %29 = getelementptr inbounds ptr, ptr %28, i64 3
  %30 = load ptr, ptr %29, align 8, !tbaa !84
  %31 = load i32, ptr %9, align 4, !tbaa !11
  %32 = sext i32 %31 to i64
  %33 = getelementptr inbounds i16, ptr %30, i64 %32
  %34 = load i16, ptr %33, align 2, !tbaa !87
  %35 = sext i16 %34 to i32
  %36 = load ptr, ptr %7, align 8, !tbaa !86
  %37 = getelementptr inbounds i32, ptr %36, i64 3
  %38 = load i32, ptr %37, align 4, !tbaa !11
  %39 = mul nsw i32 %35, %38
  %40 = add nsw i32 %27, %39
  store i32 %40, ptr %10, align 4, !tbaa !11
  %41 = load i32, ptr %10, align 4, !tbaa !11
  %42 = load ptr, ptr %6, align 8, !tbaa !120
  %43 = getelementptr inbounds ptr, ptr %42, i64 0
  %44 = load ptr, ptr %43, align 8, !tbaa !84
  %45 = load i32, ptr %9, align 4, !tbaa !11
  %46 = sext i32 %45 to i64
  %47 = getelementptr inbounds i16, ptr %44, i64 %46
  %48 = load i16, ptr %47, align 2, !tbaa !87
  %49 = sext i16 %48 to i32
  %50 = load ptr, ptr %7, align 8, !tbaa !86
  %51 = getelementptr inbounds i32, ptr %50, i64 0
  %52 = load i32, ptr %51, align 4, !tbaa !11
  %53 = mul nsw i32 %49, %52
  %54 = add nsw i32 %41, %53
  %55 = load ptr, ptr %6, align 8, !tbaa !120
  %56 = getelementptr inbounds ptr, ptr %55, i64 4
  %57 = load ptr, ptr %56, align 8, !tbaa !84
  %58 = load i32, ptr %9, align 4, !tbaa !11
  %59 = sext i32 %58 to i64
  %60 = getelementptr inbounds i16, ptr %57, i64 %59
  %61 = load i16, ptr %60, align 2, !tbaa !87
  %62 = sext i16 %61 to i32
  %63 = load ptr, ptr %7, align 8, !tbaa !86
  %64 = getelementptr inbounds i32, ptr %63, i64 4
  %65 = load i32, ptr %64, align 4, !tbaa !11
  %66 = mul nsw i32 %62, %65
  %67 = add nsw i32 %54, %66
  %68 = add nsw i32 %67, 16384
  %69 = ashr i32 %68, 15
  %70 = call signext i16 @av_clip_int16_c(i32 noundef %69) #12
  %71 = load ptr, ptr %5, align 8, !tbaa !120
  %72 = getelementptr inbounds ptr, ptr %71, i64 0
  %73 = load ptr, ptr %72, align 8, !tbaa !84
  %74 = load i32, ptr %9, align 4, !tbaa !11
  %75 = sext i32 %74 to i64
  %76 = getelementptr inbounds i16, ptr %73, i64 %75
  store i16 %70, ptr %76, align 2, !tbaa !87
  %77 = load i32, ptr %10, align 4, !tbaa !11
  %78 = load ptr, ptr %6, align 8, !tbaa !120
  %79 = getelementptr inbounds ptr, ptr %78, i64 1
  %80 = load ptr, ptr %79, align 8, !tbaa !84
  %81 = load i32, ptr %9, align 4, !tbaa !11
  %82 = sext i32 %81 to i64
  %83 = getelementptr inbounds i16, ptr %80, i64 %82
  %84 = load i16, ptr %83, align 2, !tbaa !87
  %85 = sext i16 %84 to i32
  %86 = load ptr, ptr %7, align 8, !tbaa !86
  %87 = getelementptr inbounds i32, ptr %86, i64 7
  %88 = load i32, ptr %87, align 4, !tbaa !11
  %89 = mul nsw i32 %85, %88
  %90 = add nsw i32 %77, %89
  %91 = load ptr, ptr %6, align 8, !tbaa !120
  %92 = getelementptr inbounds ptr, ptr %91, i64 5
  %93 = load ptr, ptr %92, align 8, !tbaa !84
  %94 = load i32, ptr %9, align 4, !tbaa !11
  %95 = sext i32 %94 to i64
  %96 = getelementptr inbounds i16, ptr %93, i64 %95
  %97 = load i16, ptr %96, align 2, !tbaa !87
  %98 = sext i16 %97 to i32
  %99 = load ptr, ptr %7, align 8, !tbaa !86
  %100 = getelementptr inbounds i32, ptr %99, i64 11
  %101 = load i32, ptr %100, align 4, !tbaa !11
  %102 = mul nsw i32 %98, %101
  %103 = add nsw i32 %90, %102
  %104 = add nsw i32 %103, 16384
  %105 = ashr i32 %104, 15
  %106 = call signext i16 @av_clip_int16_c(i32 noundef %105) #12
  %107 = load ptr, ptr %5, align 8, !tbaa !120
  %108 = getelementptr inbounds ptr, ptr %107, i64 1
  %109 = load ptr, ptr %108, align 8, !tbaa !84
  %110 = load i32, ptr %9, align 4, !tbaa !11
  %111 = sext i32 %110 to i64
  %112 = getelementptr inbounds i16, ptr %109, i64 %111
  store i16 %106, ptr %112, align 2, !tbaa !87
  call void @llvm.lifetime.end.p0(i64 4, ptr %10) #9
  br label %113

113:                                              ; preds = %15
  %114 = load i32, ptr %9, align 4, !tbaa !11
  %115 = add nsw i32 %114, 1
  store i32 %115, ptr %9, align 4, !tbaa !11
  br label %11, !llvm.loop !125

116:                                              ; preds = %11
  call void @llvm.lifetime.end.p0(i64 4, ptr %9) #9
  ret void
}