; Function Attrs: nofree norecurse nosync nounwind memory(readwrite, inaccessiblemem: none) uwtable
define internal void @mix6to2_clip_s16(ptr noundef readonly captures(none) %0, ptr noundef readonly captures(none) %1, ptr noundef readonly captures(none) %2, i32 noundef %3) #9 {
  %5 = icmp sgt i32 %3, 0
  br i1 %5, label %.lr.ph, label %._crit_edge

.lr.ph:                                           ; preds = %4
  %6 = getelementptr inbounds nuw i8, ptr %1, i64 16
  %7 = load ptr, ptr %6, align 8, !tbaa !105
  %8 = getelementptr inbounds nuw i8, ptr %2, i64 8
  %9 = load i32, ptr %8, align 4, !tbaa !34
  %10 = getelementptr inbounds nuw i8, ptr %1, i64 24
  %11 = load ptr, ptr %10, align 8, !tbaa !105
  %12 = getelementptr inbounds nuw i8, ptr %2, i64 12
  %13 = load i32, ptr %12, align 4, !tbaa !34
  %14 = load ptr, ptr %1, align 8, !tbaa !105
  %15 = load i32, ptr %2, align 4, !tbaa !34
  %16 = getelementptr inbounds nuw i8, ptr %1, i64 32
  %17 = load ptr, ptr %16, align 8, !tbaa !105
  %18 = getelementptr inbounds nuw i8, ptr %2, i64 16
  %19 = load i32, ptr %18, align 4, !tbaa !34
  %20 = load ptr, ptr %0, align 8, !tbaa !105
  %21 = getelementptr inbounds nuw i8, ptr %1, i64 8
  %22 = load ptr, ptr %21, align 8, !tbaa !105
  %23 = getelementptr inbounds nuw i8, ptr %2, i64 28
  %24 = load i32, ptr %23, align 4, !tbaa !34
  %25 = getelementptr inbounds nuw i8, ptr %1, i64 40
  %26 = load ptr, ptr %25, align 8, !tbaa !105
  %27 = getelementptr inbounds nuw i8, ptr %2, i64 44
  %28 = load i32, ptr %27, align 4, !tbaa !34
  %29 = getelementptr inbounds nuw i8, ptr %0, i64 8
  %30 = load ptr, ptr %29, align 8, !tbaa !105
  %wide.trip.count = zext nneg i32 %3 to i64
  br label %31

31:                                               ; preds = %.lr.ph, %31
  %indvars.iv = phi i64 [ 0, %.lr.ph ], [ %indvars.iv.next, %31 ]
  %32 = getelementptr inbounds nuw i16, ptr %7, i64 %indvars.iv
  %33 = load i16, ptr %32, align 2, !tbaa !76
  %34 = sext i16 %33 to i32
  %35 = mul nsw i32 %9, %34
  %36 = getelementptr inbounds nuw i16, ptr %11, i64 %indvars.iv
  %37 = load i16, ptr %36, align 2, !tbaa !76
  %38 = sext i16 %37 to i32
  %39 = mul nsw i32 %13, %38
  %40 = add nsw i32 %39, %35
  %41 = getelementptr inbounds nuw i16, ptr %14, i64 %indvars.iv
  %42 = load i16, ptr %41, align 2, !tbaa !76
  %43 = sext i16 %42 to i32
  %44 = mul nsw i32 %15, %43
  %45 = getelementptr inbounds nuw i16, ptr %17, i64 %indvars.iv
  %46 = load i16, ptr %45, align 2, !tbaa !76
  %47 = sext i16 %46 to i32
  %48 = mul nsw i32 %19, %47
  %49 = add i32 %40, 16384
  %50 = add i32 %49, %44
  %51 = add i32 %50, %48
  %52 = ashr i32 %51, 15
  %53 = tail call i32 @llvm.smax.i32(i32 %52, i32 -32768)
  %54 = tail call i32 @llvm.smin.i32(i32 %53, i32 32767)
  %.0.i27 = trunc nsw i32 %54 to i16
  %55 = getelementptr inbounds nuw i16, ptr %20, i64 %indvars.iv
  store i16 %.0.i27, ptr %55, align 2, !tbaa !76
  %56 = getelementptr inbounds nuw i16, ptr %22, i64 %indvars.iv
  %57 = load i16, ptr %56, align 2, !tbaa !76
  %58 = sext i16 %57 to i32
  %59 = mul nsw i32 %24, %58
  %60 = getelementptr inbounds nuw i16, ptr %26, i64 %indvars.iv
  %61 = load i16, ptr %60, align 2, !tbaa !76
  %62 = sext i16 %61 to i32
  %63 = mul nsw i32 %28, %62
  %64 = add i32 %49, %59
  %65 = add i32 %64, %63
  %66 = ashr i32 %65, 15
  %67 = tail call i32 @llvm.smax.i32(i32 %66, i32 -32768)
  %68 = tail call i32 @llvm.smin.i32(i32 %67, i32 32767)
  %.0.i = trunc nsw i32 %68 to i16
  %69 = getelementptr inbounds nuw i16, ptr %30, i64 %indvars.iv
  store i16 %.0.i, ptr %69, align 2, !tbaa !76
  %indvars.iv.next = add nuw nsw i64 %indvars.iv, 1
  %exitcond.not = icmp eq i64 %indvars.iv.next, %wide.trip.count
  br i1 %exitcond.not, label %._crit_edge, label %31, !llvm.loop !109

._crit_edge:                                      ; preds = %31, %4
  ret void
}